target datalayout = "e-m:e-p270:32:32-p271:32:32-p272:64:64-i64:64-i128:128-f80:128-n8:16:32:64-S128"
target triple = "x86_64-pc-linux-gnu"

%struct.VP8Io = type { i32, i32, i32, i32, i32, ptr, ptr, ptr, i32, i32, ptr, ptr, ptr, ptr, i32, i64, ptr, i32, i32, i32, i32, i32, i32, i32, i32, i32, ptr }
%struct.WebPDecParams = type { ptr, ptr, ptr, ptr, i32, ptr, ptr, ptr, ptr, ptr, ptr, ptr, ptr, ptr }

; Function Attrs: nounwind uwtable
define internal i32 @CustomPut(ptr noundef %0) #0 {
  %2 = alloca i32, align 4
  %3 = alloca ptr, align 8
  %4 = alloca ptr, align 8
  %5 = alloca i32, align 4
  %6 = alloca i32, align 4
  %7 = alloca i32, align 4
  %8 = alloca i32, align 4
  store ptr %0, ptr %3, align 8, !tbaa !8
  call void @llvm.lifetime.start.p0(i64 8, ptr %4) #6
  %9 = load ptr, ptr %3, align 8, !tbaa !8
  %10 = getelementptr inbounds nuw %struct.VP8Io, ptr %9, i32 0, i32 10
  %11 = load ptr, ptr %10, align 8, !tbaa !17
  store ptr %11, ptr %4, align 8, !tbaa !3
  call void @llvm.lifetime.start.p0(i64 4, ptr %5) #6
  %12 = load ptr, ptr %3, align 8, !tbaa !8
  %13 = getelementptr inbounds nuw %struct.VP8Io, ptr %12, i32 0, i32 3
  %14 = load i32, ptr %13, align 4, !tbaa !18
  store i32 %14, ptr %5, align 4, !tbaa !19
  call void @llvm.lifetime.start.p0(i64 4, ptr %6) #6
  %15 = load ptr, ptr %3, align 8, !tbaa !8
  %16 = getelementptr inbounds nuw %struct.VP8Io, ptr %15, i32 0, i32 4
  %17 = load i32, ptr %16, align 8, !tbaa !20
  store i32 %17, ptr %6, align 4, !tbaa !19
  call void @llvm.lifetime.start.p0(i64 4, ptr %7) #6
  %18 = load i32, ptr %5, align 4, !tbaa !19
  %19 = icmp sle i32 %18, 0
  br i1 %19, label %23, label %20

20:                                               ; preds = %1
  %21 = load i32, ptr %6, align 4, !tbaa !19
  %22 = icmp sle i32 %21, 0
  br i1 %22, label %23, label %24

23:                                               ; preds = %20, %1
  store i32 0, ptr %2, align 4
  store i32 1, ptr %8, align 4
  br label %49

24:                                               ; preds = %20
  %25 = load ptr, ptr %4, align 8, !tbaa !3
  %26 = getelementptr inbounds nuw %struct.WebPDecParams, ptr %25, i32 0, i32 11
  %27 = load ptr, ptr %26, align 8, !tbaa !21
  %28 = load ptr, ptr %3, align 8, !tbaa !8
  %29 = load ptr, ptr %4, align 8, !tbaa !3
  %30 = call i32 %27(ptr noundef %28, ptr noundef %29)
  store i32 %30, ptr %7, align 4, !tbaa !19
  %31 = load ptr, ptr %4, align 8, !tbaa !3
  %32 = getelementptr inbounds nuw %struct.WebPDecParams, ptr %31, i32 0, i32 12
  %33 = load ptr, ptr %32, align 8, !tbaa !26
  %34 = icmp ne ptr %33, null
  br i1 %34, label %35, label %43

35:                                               ; preds = %24
  %36 = load ptr, ptr %4, align 8, !tbaa !3
  %37 = getelementptr inbounds nuw %struct.WebPDecParams, ptr %36, i32 0, i32 12
  %38 = load ptr, ptr %37, align 8, !tbaa !26
  %39 = load ptr, ptr %3, align 8, !tbaa !8
  %40 = load ptr, ptr %4, align 8, !tbaa !3
  %41 = load i32, ptr %7, align 4, !tbaa !19
  %42 = call i32 %38(ptr noundef %39, ptr noundef %40, i32 noundef %41)
  br label %43

43:                                               ; preds = %35, %24
  %44 = load i32, ptr %7, align 4, !tbaa !19
  %45 = load ptr, ptr %4, align 8, !tbaa !3
  %46 = getelementptr inbounds nuw %struct.WebPDecParams, ptr %45, i32 0, i32 4
  %47 = load i32, ptr %46, align 8, !tbaa !27
  %48 = add nsw i32 %47, %44
  store i32 %48, ptr %46, align 8, !tbaa !27
  store i32 1, ptr %2, align 4
  store i32 1, ptr %8, align 4
  br label %49

49:                                               ; preds = %43, %23
  call void @llvm.lifetime.end.p0(i64 4, ptr %7) #6
  call void @llvm.lifetime.end.p0(i64 4, ptr %6) #6
  call void @llvm.lifetime.end.p0(i64 4, ptr %5) #6
  call void @llvm.lifetime.end.p0(i64 8, ptr %4) #6
  %50 = load i32, ptr %2, align 4
  ret i32 %50
}