; Function Attrs: nounwind uwtable
define internal range(i32 0, 2) i32 @CustomPut(ptr noundef %0) #1 {
  %2 = getelementptr inbounds nuw i8, ptr %0, i64 56
  %3 = load ptr, ptr %2, align 8, !tbaa !13
  %4 = getelementptr inbounds nuw i8, ptr %0, i64 12
  %5 = load i32, ptr %4, align 4, !tbaa !14
  %6 = getelementptr inbounds nuw i8, ptr %0, i64 16
  %7 = load i32, ptr %6, align 8, !tbaa !15
  %8 = icmp slt i32 %5, 1
  %9 = icmp slt i32 %7, 1
  %or.cond = select i1 %8, i1 true, i1 %9
  br i1 %or.cond, label %22, label %10

10:                                               ; preds = %1
  %11 = getelementptr inbounds nuw i8, ptr %3, i64 88
  %12 = load ptr, ptr %11, align 8, !tbaa !16
  %13 = tail call i32 %12(ptr noundef nonnull %0, ptr noundef %3) #6
  %14 = getelementptr inbounds nuw i8, ptr %3, i64 96
  %15 = load ptr, ptr %14, align 8, !tbaa !21
  %.not = icmp eq ptr %15, null
  br i1 %.not, label %18, label %16

16:                                               ; preds = %10
  %17 = tail call i32 %15(ptr noundef nonnull %0, ptr noundef nonnull %3, i32 noundef %13) #6
  br label %18

18:                                               ; preds = %16, %10
  %19 = getelementptr inbounds nuw i8, ptr %3, i64 32
  %20 = load i32, ptr %19, align 8, !tbaa !22
  %21 = add nsw i32 %20, %13
  store i32 %21, ptr %19, align 8, !tbaa !22
  br label %22

22:                                               ; preds = %1, %18
  %.0 = phi i32 [ 1, %18 ], [ 0, %1 ]
  ret i32 %.0
}